
GccBoardProject1.elf:     file format elf32-avr

Sections:
Idx Name          Size      VMA       LMA       File off  Algn
  0 .data         00000000  00800100  00800100  000002a2  2**0
                  CONTENTS, ALLOC, LOAD, DATA
  1 .text         0000022e  00000000  00000000  00000074  2**1
                  CONTENTS, ALLOC, LOAD, READONLY, CODE
  2 .bss          00000002  00800100  00800100  000002a2  2**0
                  ALLOC
  3 .comment      00000030  00000000  00000000  000002a2  2**0
                  CONTENTS, READONLY
  4 .note.gnu.avr.deviceinfo 00000040  00000000  00000000  000002d4  2**2
                  CONTENTS, READONLY
  5 .debug_aranges 000000f0  00000000  00000000  00000314  2**0
                  CONTENTS, READONLY, DEBUGGING
  6 .debug_info   000011b5  00000000  00000000  00000404  2**0
                  CONTENTS, READONLY, DEBUGGING
  7 .debug_abbrev 00000e79  00000000  00000000  000015b9  2**0
                  CONTENTS, READONLY, DEBUGGING
  8 .debug_line   0000126b  00000000  00000000  00002432  2**0
                  CONTENTS, READONLY, DEBUGGING
  9 .debug_frame  000001a8  00000000  00000000  000036a0  2**2
                  CONTENTS, READONLY, DEBUGGING
 10 .debug_str    00011b77  00000000  00000000  00003848  2**0
                  CONTENTS, READONLY, DEBUGGING
 11 .debug_loc    00000170  00000000  00000000  000153bf  2**0
                  CONTENTS, READONLY, DEBUGGING
 12 .debug_ranges 000000a0  00000000  00000000  0001552f  2**0
                  CONTENTS, READONLY, DEBUGGING
 13 .debug_macro  000042e6  00000000  00000000  000155cf  2**0
                  CONTENTS, READONLY, DEBUGGING

Disassembly of section .text:

00000000 <__vectors>:
   0:	4b c0       	rjmp	.+150    	; 0x98 <__ctors_end>
   2:	00 00       	nop
   4:	66 c0       	rjmp	.+204    	; 0xd2 <__bad_interrupt>
   6:	00 00       	nop
   8:	64 c0       	rjmp	.+200    	; 0xd2 <__bad_interrupt>
   a:	00 00       	nop
   c:	62 c0       	rjmp	.+196    	; 0xd2 <__bad_interrupt>
   e:	00 00       	nop
  10:	60 c0       	rjmp	.+192    	; 0xd2 <__bad_interrupt>
  12:	00 00       	nop
  14:	5e c0       	rjmp	.+188    	; 0xd2 <__bad_interrupt>
  16:	00 00       	nop
  18:	5c c0       	rjmp	.+184    	; 0xd2 <__bad_interrupt>
  1a:	00 00       	nop
  1c:	5a c0       	rjmp	.+180    	; 0xd2 <__bad_interrupt>
  1e:	00 00       	nop
  20:	58 c0       	rjmp	.+176    	; 0xd2 <__bad_interrupt>
  22:	00 00       	nop
  24:	56 c0       	rjmp	.+172    	; 0xd2 <__bad_interrupt>
  26:	00 00       	nop
  28:	54 c0       	rjmp	.+168    	; 0xd2 <__bad_interrupt>
  2a:	00 00       	nop
  2c:	52 c0       	rjmp	.+164    	; 0xd2 <__bad_interrupt>
  2e:	00 00       	nop
  30:	50 c0       	rjmp	.+160    	; 0xd2 <__bad_interrupt>
  32:	00 00       	nop
  34:	4e c0       	rjmp	.+156    	; 0xd2 <__bad_interrupt>
  36:	00 00       	nop
  38:	4c c0       	rjmp	.+152    	; 0xd2 <__bad_interrupt>
  3a:	00 00       	nop
  3c:	4a c0       	rjmp	.+148    	; 0xd2 <__bad_interrupt>
  3e:	00 00       	nop
  40:	48 c0       	rjmp	.+144    	; 0xd2 <__bad_interrupt>
  42:	00 00       	nop
  44:	46 c0       	rjmp	.+140    	; 0xd2 <__bad_interrupt>
  46:	00 00       	nop
  48:	44 c0       	rjmp	.+136    	; 0xd2 <__bad_interrupt>
  4a:	00 00       	nop
  4c:	42 c0       	rjmp	.+132    	; 0xd2 <__bad_interrupt>
  4e:	00 00       	nop
  50:	40 c0       	rjmp	.+128    	; 0xd2 <__bad_interrupt>
  52:	00 00       	nop
  54:	3e c0       	rjmp	.+124    	; 0xd2 <__bad_interrupt>
  56:	00 00       	nop
  58:	3c c0       	rjmp	.+120    	; 0xd2 <__bad_interrupt>
  5a:	00 00       	nop
  5c:	3a c0       	rjmp	.+116    	; 0xd2 <__bad_interrupt>
  5e:	00 00       	nop
  60:	38 c0       	rjmp	.+112    	; 0xd2 <__bad_interrupt>
  62:	00 00       	nop
  64:	36 c0       	rjmp	.+108    	; 0xd2 <__bad_interrupt>
  66:	00 00       	nop
  68:	34 c0       	rjmp	.+104    	; 0xd2 <__bad_interrupt>
  6a:	00 00       	nop
  6c:	32 c0       	rjmp	.+100    	; 0xd2 <__bad_interrupt>
  6e:	00 00       	nop
  70:	30 c0       	rjmp	.+96     	; 0xd2 <__bad_interrupt>
  72:	00 00       	nop
  74:	b3 c0       	rjmp	.+358    	; 0x1dc <__vector_29>
  76:	00 00       	nop
  78:	2c c0       	rjmp	.+88     	; 0xd2 <__bad_interrupt>
  7a:	00 00       	nop
  7c:	2a c0       	rjmp	.+84     	; 0xd2 <__bad_interrupt>
  7e:	00 00       	nop
  80:	28 c0       	rjmp	.+80     	; 0xd2 <__bad_interrupt>
  82:	00 00       	nop
  84:	26 c0       	rjmp	.+76     	; 0xd2 <__bad_interrupt>
  86:	00 00       	nop
  88:	24 c0       	rjmp	.+72     	; 0xd2 <__bad_interrupt>
  8a:	00 00       	nop
  8c:	22 c0       	rjmp	.+68     	; 0xd2 <__bad_interrupt>
  8e:	00 00       	nop
  90:	20 c0       	rjmp	.+64     	; 0xd2 <__bad_interrupt>
  92:	00 00       	nop
  94:	1e c0       	rjmp	.+60     	; 0xd2 <__bad_interrupt>
	...

00000098 <__ctors_end>:
  98:	11 24       	eor	r1, r1
  9a:	1f be       	out	0x3f, r1	; 63
  9c:	cf ef       	ldi	r28, 0xFF	; 255
  9e:	d0 e2       	ldi	r29, 0x20	; 32
  a0:	de bf       	out	0x3e, r29	; 62
  a2:	cd bf       	out	0x3d, r28	; 61

000000a4 <__do_copy_data>:
  a4:	11 e0       	ldi	r17, 0x01	; 1
  a6:	a0 e0       	ldi	r26, 0x00	; 0
  a8:	b1 e0       	ldi	r27, 0x01	; 1
  aa:	ee e2       	ldi	r30, 0x2E	; 46
  ac:	f2 e0       	ldi	r31, 0x02	; 2
  ae:	00 e0       	ldi	r16, 0x00	; 0
  b0:	0b bf       	out	0x3b, r16	; 59
  b2:	02 c0       	rjmp	.+4      	; 0xb8 <__do_copy_data+0x14>
  b4:	07 90       	elpm	r0, Z+
  b6:	0d 92       	st	X+, r0
  b8:	a0 30       	cpi	r26, 0x00	; 0
  ba:	b1 07       	cpc	r27, r17
  bc:	d9 f7       	brne	.-10     	; 0xb4 <__do_copy_data+0x10>

000000be <__do_clear_bss>:
  be:	21 e0       	ldi	r18, 0x01	; 1
  c0:	a0 e0       	ldi	r26, 0x00	; 0
  c2:	b1 e0       	ldi	r27, 0x01	; 1
  c4:	01 c0       	rjmp	.+2      	; 0xc8 <.do_clear_bss_start>

000000c6 <.do_clear_bss_loop>:
  c6:	1d 92       	st	X+, r1

000000c8 <.do_clear_bss_start>:
  c8:	a2 30       	cpi	r26, 0x02	; 2
  ca:	b2 07       	cpc	r27, r18
  cc:	e1 f7       	brne	.-8      	; 0xc6 <.do_clear_bss_loop>
  ce:	64 d0       	rcall	.+200    	; 0x198 <main>
  d0:	ac c0       	rjmp	.+344    	; 0x22a <_exit>

000000d2 <__bad_interrupt>:
  d2:	96 cf       	rjmp	.-212    	; 0x0 <__vectors>

000000d4 <init_adc>:
	//PORTA ^= 0x20;
}

extern uint8_t read_ADC(){
	return ADC_result;
}
  d4:	81 e6       	ldi	r24, 0x61	; 97
  d6:	80 93 7c 00 	sts	0x007C, r24	; 0x80007c <__TEXT_REGION_LENGTH__+0x7e007c>
  da:	88 e8       	ldi	r24, 0x88	; 136
  dc:	80 93 7a 00 	sts	0x007A, r24	; 0x80007a <__TEXT_REGION_LENGTH__+0x7e007a>
  e0:	82 e0       	ldi	r24, 0x02	; 2
  e2:	80 93 7e 00 	sts	0x007E, r24	; 0x80007e <__TEXT_REGION_LENGTH__+0x7e007e>
  e6:	10 92 00 01 	sts	0x0100, r1	; 0x800100 <__data_end>
  ea:	10 92 01 01 	sts	0x0101, r1	; 0x800101 <ADC_result_change_flag>
  ee:	08 95       	ret

000000f0 <adc_start_conv>:
  f0:	ea e7       	ldi	r30, 0x7A	; 122
  f2:	f0 e0       	ldi	r31, 0x00	; 0
  f4:	80 81       	ld	r24, Z
  f6:	80 64       	ori	r24, 0x40	; 64
  f8:	80 83       	st	Z, r24
  fa:	08 95       	ret

000000fc <ADC_interrupt>:

extern void ADC_interrupt(){
  fc:	cf 93       	push	r28
  fe:	df 93       	push	r29
	ADC_result = ADCH;
 100:	c9 e7       	ldi	r28, 0x79	; 121
 102:	d0 e0       	ldi	r29, 0x00	; 0
 104:	88 81       	ld	r24, Y
 106:	80 93 00 01 	sts	0x0100, r24	; 0x800100 <__data_end>
	adc_start_conv();
	//mTimer(5);
	PORTA = ADCH;
 10a:	f2 df       	rcall	.-28     	; 0xf0 <adc_start_conv>
 10c:	88 81       	ld	r24, Y
	OCR0A=ADCH;
 10e:	82 b9       	out	0x02, r24	; 2
 110:	88 81       	ld	r24, Y
	
 112:	87 bd       	out	0x27, r24	; 39
 114:	df 91       	pop	r29
 116:	cf 91       	pop	r28
 118:	08 95       	ret

0000011a <init_led>:
#include <asf.h>
#include "led.h"


extern void init_led(){
	DDRA = 0b11111111; /* Sets all pins on Port D to output */
 11a:	8f ef       	ldi	r24, 0xFF	; 255
 11c:	81 b9       	out	0x01, r24	; 1
	PORTA = 0x0; /* initialize port to low – turn on LEDs */
 11e:	12 b8       	out	0x02, r1	; 2
 120:	08 95       	ret

00000122 <mTimerConfig>:
#include "mtimer.h"

extern void mTimerConfig()
{
	/* Insert system clock initialization code here (sysclk_init()). */
	TCCR1B |= _BV(CS10);
 122:	e1 e8       	ldi	r30, 0x81	; 129
 124:	f0 e0       	ldi	r31, 0x00	; 0
 126:	80 81       	ld	r24, Z
 128:	81 60       	ori	r24, 0x01	; 1
 12a:	80 83       	st	Z, r24
 12c:	08 95       	ret

0000012e <mTimer>:
}

extern void mTimer(int count)
{
 12e:	ac 01       	movw	r20, r24
	int i = 0;
	
	TCCR1B |= _BV(WGM12); /*CTC mode*/
 130:	e1 e8       	ldi	r30, 0x81	; 129
 132:	f0 e0       	ldi	r31, 0x00	; 0
 134:	90 81       	ld	r25, Z
 136:	98 60       	ori	r25, 0x08	; 8
 138:	90 83       	st	Z, r25
	
	OCR1A = 0x03e8; //1000
 13a:	88 ee       	ldi	r24, 0xE8	; 232
 13c:	93 e0       	ldi	r25, 0x03	; 3
 13e:	90 93 89 00 	sts	0x0089, r25	; 0x800089 <__TEXT_REGION_LENGTH__+0x7e0089>
 142:	80 93 88 00 	sts	0x0088, r24	; 0x800088 <__TEXT_REGION_LENGTH__+0x7e0088>
	
	TCNT1 = 0x0000;
 146:	10 92 85 00 	sts	0x0085, r1	; 0x800085 <__TEXT_REGION_LENGTH__+0x7e0085>
 14a:	10 92 84 00 	sts	0x0084, r1	; 0x800084 <__TEXT_REGION_LENGTH__+0x7e0084>
	
	//TIMSK1 |= 0b00000010;
	
	TIFR1 |= _BV(OCF1A);
 14e:	b1 9a       	sbi	0x16, 1	; 22
	TCCR1B |= _BV(CS10);
}

extern void mTimer(int count)
{
	int i = 0;
 150:	20 e0       	ldi	r18, 0x00	; 0
 152:	30 e0       	ldi	r19, 0x00	; 0
	
	//TIMSK1 |= 0b00000010;
	
	TIFR1 |= _BV(OCF1A);
	
	while (i < count)
 154:	05 c0       	rjmp	.+10     	; 0x160 <mTimer+0x32>
	{
		if ((TIFR1 & 0x02) == 0x02)
 156:	b1 9b       	sbis	0x16, 1	; 22
 158:	fe cf       	rjmp	.-4      	; 0x156 <mTimer+0x28>
		{
			TIFR1 |= _BV(OCF1A);
 15a:	b1 9a       	sbi	0x16, 1	; 22
			i++;
 15c:	2f 5f       	subi	r18, 0xFF	; 255
 15e:	3f 4f       	sbci	r19, 0xFF	; 255
	
	//TIMSK1 |= 0b00000010;
	
	TIFR1 |= _BV(OCF1A);
	
	while (i < count)
 160:	24 17       	cp	r18, r20
 162:	35 07       	cpc	r19, r21
 164:	1c f4       	brge	.+6      	; 0x16c <mTimer+0x3e>
	{
		if ((TIFR1 & 0x02) == 0x02)
 166:	b1 9b       	sbis	0x16, 1	; 22
 168:	f6 cf       	rjmp	.-20     	; 0x156 <mTimer+0x28>
 16a:	f7 cf       	rjmp	.-18     	; 0x15a <mTimer+0x2c>
 16c:	08 95       	ret

0000016e <init_pwm>:
	TCCR0B = (1<<CS01) | (1<<CS00);
	OCR0A = 220;
}

extern inline void set_dc_motor_speed(uint8_t speed){
	OCR0A = speed;
 16e:	84 b1       	in	r24, 0x04	; 4
 170:	8f 68       	ori	r24, 0x8F	; 143
 172:	84 b9       	out	0x04, r24	; 4
 174:	83 e8       	ldi	r24, 0x83	; 131
 176:	84 bd       	out	0x24, r24	; 36
 178:	83 e0       	ldi	r24, 0x03	; 3
 17a:	85 bd       	out	0x25, r24	; 37
 17c:	8c ed       	ldi	r24, 0xDC	; 220
 17e:	87 bd       	out	0x27, r24	; 39
 180:	08 95       	ret

00000182 <set_motor_setting>:
}

extern void set_motor_setting(Motor_Setting setting){
	//Force all settings to off
	PORTB &= ~(IA | IB | EA | EB);
 182:	95 b1       	in	r25, 0x05	; 5
 184:	90 7f       	andi	r25, 0xF0	; 240
 186:	95 b9       	out	0x05, r25	; 5
	
	if(setting == DC_Motor_Clockwise){
 188:	81 30       	cpi	r24, 0x01	; 1
 18a:	11 f4       	brne	.+4      	; 0x190 <set_motor_setting+0xe>
		PORTB |= IB;
 18c:	29 9a       	sbi	0x05, 1	; 5
 18e:	08 95       	ret
	}
	else if (setting == DC_Motor_Counter_Clockwise){
 190:	82 30       	cpi	r24, 0x02	; 2
 192:	09 f4       	brne	.+2      	; 0x196 <set_motor_setting+0x14>
		PORTB |= IA;
 194:	2a 9a       	sbi	0x05, 2	; 5
 196:	08 95       	ret

00000198 <main>:
	cli();
	mTimerConfig();
	init_led();

	//init_stepper();
	init_pwm();
 198:	f8 94       	cli
	init_adc();
 19a:	c3 df       	rcall	.-122    	; 0x122 <mTimerConfig>
	sei();	
 19c:	be df       	rcall	.-132    	; 0x11a <init_led>
	
	adc_start_conv();
 19e:	e7 df       	rcall	.-50     	; 0x16e <init_pwm>
 1a0:	99 df       	rcall	.-206    	; 0xd4 <init_adc>
	Motor_Setting current_direction = DC_Motor_Counter_Clockwise;
	set_motor_setting(current_direction);
 1a2:	78 94       	sei
 1a4:	a5 df       	rcall	.-182    	; 0xf0 <adc_start_conv>
 1a6:	82 e0       	ldi	r24, 0x02	; 2
	DDRC = 0;
 1a8:	ec df       	rcall	.-40     	; 0x182 <set_motor_setting>
			mTimer(20);
			
			if(current_direction == DC_Motor_Clockwise){
				current_direction = DC_Motor_Counter_Clockwise;
			}else{
				current_direction = DC_Motor_Clockwise;
 1aa:	17 b8       	out	0x07, r1	; 7
	adc_start_conv();
	Motor_Setting current_direction = DC_Motor_Counter_Clockwise;
	set_motor_setting(current_direction);
	DDRC = 0;
	while(1){
		if( (PINC & 0x01) > 0 ){
 1ac:	c2 e0       	ldi	r28, 0x02	; 2
 1ae:	12 e0       	ldi	r17, 0x02	; 2
			mTimer(20);
 1b0:	d1 e0       	ldi	r29, 0x01	; 1
 1b2:	30 9b       	sbis	0x06, 0	; 6
 1b4:	0f c0       	rjmp	.+30     	; 0x1d4 <main+0x3c>
			
			if(current_direction == DC_Motor_Clockwise){
 1b6:	84 e1       	ldi	r24, 0x14	; 20
 1b8:	90 e0       	ldi	r25, 0x00	; 0
				current_direction = DC_Motor_Counter_Clockwise;
			}else{
				current_direction = DC_Motor_Clockwise;
 1ba:	b9 df       	rcall	.-142    	; 0x12e <mTimer>
			}
			set_motor_setting(current_direction);
 1bc:	c1 30       	cpi	r28, 0x01	; 1
 1be:	11 f0       	breq	.+4      	; 0x1c4 <main+0x2c>
			while( (PINC & 0x01) > 0);
 1c0:	cd 2f       	mov	r28, r29
 1c2:	01 c0       	rjmp	.+2      	; 0x1c6 <main+0x2e>
			mTimer(20);
 1c4:	c1 2f       	mov	r28, r17
 1c6:	8c 2f       	mov	r24, r28
 1c8:	dc df       	rcall	.-72     	; 0x182 <set_motor_setting>
 1ca:	30 99       	sbic	0x06, 0	; 6
		}
		//set_dc_motor_speed(read_ADC());
		mTimer(15);
 1cc:	fe cf       	rjmp	.-4      	; 0x1ca <main+0x32>
 1ce:	84 e1       	ldi	r24, 0x14	; 20
 1d0:	90 e0       	ldi	r25, 0x00	; 0
 1d2:	ad df       	rcall	.-166    	; 0x12e <mTimer>
	}
 1d4:	8f e0       	ldi	r24, 0x0F	; 15
 1d6:	90 e0       	ldi	r25, 0x00	; 0
 1d8:	aa df       	rcall	.-172    	; 0x12e <mTimer>
 1da:	eb cf       	rjmp	.-42     	; 0x1b2 <main+0x1a>

000001dc <__vector_29>:
/***************************** SUBROUTINES ********************************************/
/**************************************************************************************/


ISR(ADC_vect)
{
 1dc:	1f 92       	push	r1
 1de:	0f 92       	push	r0
 1e0:	0f b6       	in	r0, 0x3f	; 63
 1e2:	0f 92       	push	r0
 1e4:	11 24       	eor	r1, r1
 1e6:	0b b6       	in	r0, 0x3b	; 59
 1e8:	0f 92       	push	r0
 1ea:	2f 93       	push	r18
 1ec:	3f 93       	push	r19
 1ee:	4f 93       	push	r20
 1f0:	5f 93       	push	r21
 1f2:	6f 93       	push	r22
 1f4:	7f 93       	push	r23
 1f6:	8f 93       	push	r24
 1f8:	9f 93       	push	r25
 1fa:	af 93       	push	r26
 1fc:	bf 93       	push	r27
 1fe:	ef 93       	push	r30
	ADC_interrupt();
 200:	ff 93       	push	r31
}
 202:	7c df       	rcall	.-264    	; 0xfc <ADC_interrupt>
 204:	ff 91       	pop	r31
 206:	ef 91       	pop	r30
 208:	bf 91       	pop	r27
 20a:	af 91       	pop	r26
 20c:	9f 91       	pop	r25
 20e:	8f 91       	pop	r24
 210:	7f 91       	pop	r23
 212:	6f 91       	pop	r22
 214:	5f 91       	pop	r21
 216:	4f 91       	pop	r20
 218:	3f 91       	pop	r19
 21a:	2f 91       	pop	r18
 21c:	0f 90       	pop	r0
 21e:	0b be       	out	0x3b, r0	; 59
 220:	0f 90       	pop	r0
 222:	0f be       	out	0x3f, r0	; 63
 224:	0f 90       	pop	r0
 226:	1f 90       	pop	r1
 228:	18 95       	reti

0000022a <_exit>:
 22a:	f8 94       	cli

0000022c <__stop_program>:
 22c:	ff cf       	rjmp	.-2      	; 0x22c <__stop_program>
